#include <math.h>
#include <stdio.h>
#include <stdlib.h>
#include <string.h>

void main()
{
	int a[400]={0},b[400]={0};
	char c1[500]={0},c2[500]={0};
	int i=0;
	scanf("%s %s",c1,c2);
	while(c1[i]!=0)
	{
		a[c2[i]]++;
		i++;
	}
	i=0;
	while(c2[i]!=0)
	{
		b[c2[i]]++;
		i++;
	}
	for(i=0;i<400;i++) if(a[i]!=b[i]) i=1000;
	if(i!=400) printf("NO\n");
	else printf("YES\n");
}