; ModuleID = '36/18.c'
source_filename = "36/18.c"
target datalayout = "e-m:e-p270:32:32-p271:32:32-p272:64:64-i64:64-f80:128-n8:16:32:64-S128"
target triple = "x86_64-pc-linux-gnu"

@.str = private unnamed_addr constant [6 x i8] c"%s %s\00", align 1
@.str.1 = private unnamed_addr constant [4 x i8] c"NO\0A\00", align 1
@.str.2 = private unnamed_addr constant [5 x i8] c"YES\0A\00", align 1

; Function Attrs: noinline nounwind uwtable
define dso_local void @main() #0 {
  %1 = alloca [400 x i32], align 16
  %2 = alloca [400 x i32], align 16
  %3 = alloca [500 x i8], align 16
  %4 = alloca [500 x i8], align 16
  %5 = alloca i32, align 4
  %6 = bitcast [400 x i32]* %1 to i8*
  call void @llvm.memset.p0i8.i64(i8* align 16 %6, i8 0, i64 1600, i1 false)
  %7 = bitcast [400 x i32]* %2 to i8*
  call void @llvm.memset.p0i8.i64(i8* align 16 %7, i8 0, i64 1600, i1 false)
  %8 = bitcast [500 x i8]* %3 to i8*
  call void @llvm.memset.p0i8.i64(i8* align 16 %8, i8 0, i64 500, i1 false)
  %9 = bitcast [500 x i8]* %4 to i8*
  call void @llvm.memset.p0i8.i64(i8* align 16 %9, i8 0, i64 500, i1 false)
  store i32 0, i32* %5, align 4
  %10 = getelementptr inbounds [500 x i8], [500 x i8]* %3, i64 0, i64 0
  %11 = getelementptr inbounds [500 x i8], [500 x i8]* %4, i64 0, i64 0
  %12 = call i32 (i8*, ...) @__isoc99_scanf(i8* getelementptr inbounds ([6 x i8], [6 x i8]* @.str, i64 0, i64 0), i8* %10, i8* %11)
  br label %13

13:                                               ; preds = %20, %0
  %14 = load i32, i32* %5, align 4
  %15 = sext i32 %14 to i64
  %16 = getelementptr inbounds [500 x i8], [500 x i8]* %3, i64 0, i64 %15
  %17 = load i8, i8* %16, align 1
  %18 = sext i8 %17 to i32
  %19 = icmp ne i32 %18, 0
  br i1 %19, label %20, label %31

20:                                               ; preds = %13
  %21 = load i32, i32* %5, align 4
  %22 = sext i32 %21 to i64
  %23 = getelementptr inbounds [500 x i8], [500 x i8]* %4, i64 0, i64 %22
  %24 = load i8, i8* %23, align 1
  %25 = sext i8 %24 to i64
  %26 = getelementptr inbounds [400 x i32], [400 x i32]* %1, i64 0, i64 %25
  %27 = load i32, i32* %26, align 4
  %28 = add nsw i32 %27, 1
  store i32 %28, i32* %26, align 4
  %29 = load i32, i32* %5, align 4
  %30 = add nsw i32 %29, 1
  store i32 %30, i32* %5, align 4
  br label %13

31:                                               ; preds = %13
  store i32 0, i32* %5, align 4
  br label %32

32:                                               ; preds = %39, %31
  %33 = load i32, i32* %5, align 4
  %34 = sext i32 %33 to i64
  %35 = getelementptr inbounds [500 x i8], [500 x i8]* %4, i64 0, i64 %34
  %36 = load i8, i8* %35, align 1
  %37 = sext i8 %36 to i32
  %38 = icmp ne i32 %37, 0
  br i1 %38, label %39, label %50

39:                                               ; preds = %32
  %40 = load i32, i32* %5, align 4
  %41 = sext i32 %40 to i64
  %42 = getelementptr inbounds [500 x i8], [500 x i8]* %4, i64 0, i64 %41
  %43 = load i8, i8* %42, align 1
  %44 = sext i8 %43 to i64
  %45 = getelementptr inbounds [400 x i32], [400 x i32]* %2, i64 0, i64 %44
  %46 = load i32, i32* %45, align 4
  %47 = add nsw i32 %46, 1
  store i32 %47, i32* %45, align 4
  %48 = load i32, i32* %5, align 4
  %49 = add nsw i32 %48, 1
  store i32 %49, i32* %5, align 4
  br label %32

50:                                               ; preds = %32
  store i32 0, i32* %5, align 4
  br label %51

51:                                               ; preds = %66, %50
  %52 = load i32, i32* %5, align 4
  %53 = icmp slt i32 %52, 400
  br i1 %53, label %54, label %69

54:                                               ; preds = %51
  %55 = load i32, i32* %5, align 4
  %56 = sext i32 %55 to i64
  %57 = getelementptr inbounds [400 x i32], [400 x i32]* %1, i64 0, i64 %56
  %58 = load i32, i32* %57, align 4
  %59 = load i32, i32* %5, align 4
  %60 = sext i32 %59 to i64
  %61 = getelementptr inbounds [400 x i32], [400 x i32]* %2, i64 0, i64 %60
  %62 = load i32, i32* %61, align 4
  %63 = icmp ne i32 %58, %62
  br i1 %63, label %64, label %65

64:                                               ; preds = %54
  store i32 1000, i32* %5, align 4
  br label %65

65:                                               ; preds = %64, %54
  br label %66

66:                                               ; preds = %65
  %67 = load i32, i32* %5, align 4
  %68 = add nsw i32 %67, 1
  store i32 %68, i32* %5, align 4
  br label %51

69:                                               ; preds = %51
  %70 = load i32, i32* %5, align 4
  %71 = icmp ne i32 %70, 400
  br i1 %71, label %72, label %74

72:                                               ; preds = %69
  %73 = call i32 (i8*, ...) @printf(i8* getelementptr inbounds ([4 x i8], [4 x i8]* @.str.1, i64 0, i64 0))
  br label %76

74:                                               ; preds = %69
  %75 = call i32 (i8*, ...) @printf(i8* getelementptr inbounds ([5 x i8], [5 x i8]* @.str.2, i64 0, i64 0))
  br label %76

76:                                               ; preds = %74, %72
  ret void
}

; Function Attrs: argmemonly nounwind willreturn
declare void @llvm.memset.p0i8.i64(i8* nocapture writeonly, i8, i64, i1 immarg) #1

declare dso_local i32 @__isoc99_scanf(i8*, ...) #2

declare dso_local i32 @printf(i8*, ...) #2


!llvm.module.flags = !{!0}
!llvm.ident = !{!1}

!0 = !{i32 1, !"wchar_size", i32 4}
!1 = !{!"clang version 10.0.0-4ubuntu1 "}
